; Function Attrs: mustprogress nounwind uwtable
define void @_ZN6google8protobuf15DescriptorProtoD2Ev(ptr noundef nonnull align 8 dereferenceable(232) %this) unnamed_addr #6 align 2 personality ptr @__gxx_personality_v0 {
entry:
  %_internal_metadata_ = getelementptr inbounds i8, ptr %this, i64 8
  %0 = load i64, ptr %_internal_metadata_, align 8
  %and.i.i = and i64 %0, 1
  %tobool.i.not.i = icmp eq i64 %and.i.i, 0
  br i1 %tobool.i.not.i, label %invoke.cont, label %if.then.i

if.then.i:                                        ; preds = %entry
  invoke void @_ZN6google8protobuf8internal16InternalMetadata21DeleteOutOfLineHelperINS0_15UnknownFieldSetEEEvv(ptr noundef nonnull align 8 dereferenceable(8) %_internal_metadata_)
          to label %invoke.cont unwind label %terminate.lpad

invoke.cont:                                      ; preds = %entry, %if.then.i
  %name_.i = getelementptr inbounds i8, ptr %this, i64 216
  invoke void @_ZN6google8protobuf8internal14ArenaStringPtr7DestroyEv(ptr noundef nonnull align 8 dereferenceable(8) %name_.i)
          to label %.noexc1 unwind label %terminate.lpad

.noexc1:                                          ; preds = %invoke.cont
  %options_.i = getelementptr inbounds i8, ptr %this, i64 224
  %1 = load ptr, ptr %options_.i, align 8
  %isnull.i = icmp eq ptr %1, null
  br i1 %isnull.i, label %invoke.cont2, label %delete.notnull.i

delete.notnull.i:                                 ; preds = %.noexc1
  tail call void @_ZN6google8protobuf14MessageOptionsD1Ev(ptr noundef nonnull align 8 dereferenceable(88) %1) #22
  tail call void @_ZdlPv(ptr noundef nonnull %1) #23
  br label %invoke.cont2

invoke.cont2:                                     ; preds = %delete.notnull.i, %.noexc1
  %2 = getelementptr inbounds i8, ptr %this, i64 16
  tail call void @_ZN6google8protobuf15DescriptorProto5Impl_D2Ev(ptr noundef nonnull align 8 dereferenceable(216) %2) #22
  ret void

terminate.lpad:                                   ; preds = %invoke.cont, %if.then.i
  %3 = landingpad { ptr, i32 }
          catch ptr null
  %4 = extractvalue { ptr, i32 } %3, 0
  tail call void @__clang_call_terminate(ptr %4) #21
  unreachable
}